target datalayout = "e-m:e-p270:32:32-p271:32:32-p272:64:64-i64:64-i128:128-f80:128-n8:16:32:64-S128"
target triple = "x86_64-pc-linux-gnu"

%struct.MXFMetadataSet = type { [16 x i8], i64 }
%struct.MXFEssenceContainerData = type { %struct.MXFMetadataSet, [16 x i8], [16 x i8], i32, i32 }

; Function Attrs: nounwind uwtable
define internal i32 @mxf_read_essence_container_data(ptr noundef %0, ptr noundef %1, i32 noundef %2, i32 noundef %3, ptr noundef %4, i64 noundef %5) #0 {
  %7 = alloca ptr, align 8
  %8 = alloca ptr, align 8
  %9 = alloca i32, align 4
  %10 = alloca i32, align 4
  %11 = alloca ptr, align 8
  %12 = alloca i64, align 8
  %13 = alloca ptr, align 8
  store ptr %0, ptr %7, align 8, !tbaa !90
  store ptr %1, ptr %8, align 8, !tbaa !138
  store i32 %2, ptr %9, align 4, !tbaa !47
  store i32 %3, ptr %10, align 4, !tbaa !47
  store ptr %4, ptr %11, align 8, !tbaa !13
  store i64 %5, ptr %12, align 8, !tbaa !37
  call void @llvm.lifetime.start.p0(i64 8, ptr %13) #13
  %14 = load ptr, ptr %7, align 8, !tbaa !90
  store ptr %14, ptr %13, align 8, !tbaa !178
  %15 = load i32, ptr %9, align 4, !tbaa !47
  switch i32 %15, label %37 [
    i32 9985, label %16
    i32 16134, label %27
    i32 16135, label %32
  ]

16:                                               ; preds = %6
  %17 = load ptr, ptr %8, align 8, !tbaa !138
  %18 = load ptr, ptr %13, align 8, !tbaa !178
  %19 = getelementptr inbounds nuw %struct.MXFEssenceContainerData, ptr %18, i32 0, i32 2
  %20 = getelementptr inbounds [16 x i8], ptr %19, i64 0, i64 0
  %21 = call i32 @avio_read(ptr noundef %17, ptr noundef %20, i32 noundef 16)
  %22 = load ptr, ptr %8, align 8, !tbaa !138
  %23 = load ptr, ptr %13, align 8, !tbaa !178
  %24 = getelementptr inbounds nuw %struct.MXFEssenceContainerData, ptr %23, i32 0, i32 1
  %25 = getelementptr inbounds [16 x i8], ptr %24, i64 0, i64 0
  %26 = call i32 @avio_read(ptr noundef %22, ptr noundef %25, i32 noundef 16)
  br label %37

27:                                               ; preds = %6
  %28 = load ptr, ptr %8, align 8, !tbaa !138
  %29 = call i32 @avio_rb32(ptr noundef %28)
  %30 = load ptr, ptr %13, align 8, !tbaa !178
  %31 = getelementptr inbounds nuw %struct.MXFEssenceContainerData, ptr %30, i32 0, i32 3
  store i32 %29, ptr %31, align 8, !tbaa !183
  br label %37

32:                                               ; preds = %6
  %33 = load ptr, ptr %8, align 8, !tbaa !138
  %34 = call i32 @avio_rb32(ptr noundef %33)
  %35 = load ptr, ptr %13, align 8, !tbaa !178
  %36 = getelementptr inbounds nuw %struct.MXFEssenceContainerData, ptr %35, i32 0, i32 4
  store i32 %34, ptr %36, align 4, !tbaa !180
  br label %37

37:                                               ; preds = %6, %32, %27, %16
  call void @llvm.lifetime.end.p0(i64 8, ptr %13) #13
  ret i32 0
}