; Function Attrs: nounwind uwtable
define internal noundef i32 @mxf_read_essence_container_data(ptr noundef %0, ptr noundef %1, i32 noundef %2, i32 %3, ptr readnone captures(none) %4, i64 %5) #1 {
  switch i32 %2, label %18 [
    i32 9985, label %7
    i32 16134, label %12
    i32 16135, label %15
  ]

7:                                                ; preds = %6
  %8 = getelementptr inbounds nuw i8, ptr %0, i64 40
  %9 = tail call i32 @avio_read(ptr noundef %1, ptr noundef nonnull %8, i32 noundef 16) #15
  %10 = getelementptr inbounds nuw i8, ptr %0, i64 24
  %11 = tail call i32 @avio_read(ptr noundef %1, ptr noundef nonnull %10, i32 noundef 16) #15
  br label %18

12:                                               ; preds = %6
  %13 = tail call i32 @avio_rb32(ptr noundef %1) #15
  %14 = getelementptr inbounds nuw i8, ptr %0, i64 56
  store i32 %13, ptr %14, align 8, !tbaa !104
  br label %18

15:                                               ; preds = %6
  %16 = tail call i32 @avio_rb32(ptr noundef %1) #15
  %17 = getelementptr inbounds nuw i8, ptr %0, i64 60
  store i32 %16, ptr %17, align 4, !tbaa !101
  br label %18

18:                                               ; preds = %15, %12, %7, %6
  ret i32 0
}